; Function Attrs: nounwind uwtable
define internal fastcc range(i32 -1, 1) i32 @H5SL__close_common(ptr noundef %0, ptr noundef captures(address_is_null) %1, ptr noundef %2) unnamed_addr #0 {
  %4 = load i8, ptr @H5SL_init_g, align 1, !tbaa !3, !range !7, !noundef !8
  %5 = trunc nuw i8 %4 to i1
  %6 = load i8, ptr @H5_libterm_g, align 1, !range !7
  %7 = trunc nuw i8 %6 to i1
  %8 = xor i1 %7, true
  %9 = select i1 %5, i1 true, i1 %8
  br i1 %9, label %10, label %32, !prof !9

10:                                               ; preds = %3
  %11 = tail call fastcc i32 @H5SL__release_common(ptr noundef %0, ptr noundef %1, ptr noundef %2)
  %12 = icmp slt i32 %11, 0
  br i1 %12, label %13, label %17

13:                                               ; preds = %10
  %14 = load i64, ptr @H5E_SLIST_g, align 8, !tbaa !13
  %15 = load i64, ptr @H5E_CANTFREE_g, align 8, !tbaa !13
  %16 = tail call i32 (ptr, ptr, i32, i64, i64, ptr, ...) @H5E_printf_stack(ptr noundef nonnull @.str, ptr noundef nonnull @__func__.H5SL__close_common, i32 noundef 898, i64 noundef %14, i64 noundef %15, ptr noundef nonnull @.str.4) #9
  br label %32

17:                                               ; preds = %10
  %18 = load ptr, ptr @H5SL_fac_g, align 8, !tbaa !10
  %19 = getelementptr inbounds nuw i8, ptr %0, i64 32
  %20 = load ptr, ptr %19, align 8, !tbaa !32
  %21 = getelementptr inbounds nuw i8, ptr %20, i64 24
  %22 = load i64, ptr %21, align 8, !tbaa !38
  %23 = getelementptr inbounds nuw ptr, ptr %18, i64 %22
  %24 = load ptr, ptr %23, align 8, !tbaa !15
  %25 = getelementptr inbounds nuw i8, ptr %20, i64 40
  %26 = load ptr, ptr %25, align 8, !tbaa !27
  %27 = tail call ptr @H5FL_fac_free(ptr noundef %24, ptr noundef %26) #9
  %28 = load ptr, ptr %19, align 8, !tbaa !32
  %29 = getelementptr inbounds nuw i8, ptr %28, i64 40
  store ptr %27, ptr %29, align 8, !tbaa !27
  %30 = tail call ptr @H5FL_reg_free(ptr noundef nonnull @H5_H5SL_node_t_reg_free_list, ptr noundef %28) #9
  store ptr %30, ptr %19, align 8, !tbaa !32
  %31 = tail call ptr @H5FL_reg_free(ptr noundef nonnull @H5_H5SL_t_reg_free_list, ptr noundef %0) #9
  br label %32

32:                                               ; preds = %13, %17, %3
  %.0 = phi i32 [ -1, %13 ], [ 0, %17 ], [ 0, %3 ]
  ret i32 %.0
}